ccopy_reg
_reconstructor
p1
(c__main__
CurrentData
p2
c__builtin__
object
p3
NtRp4
(dp5
S'revenue'
p6
g1
(c__main__
MonthlyRevenue
p7
g3
NtRp8
(dp9
S'tempRevenue'
p10
S'2000.0'
p11
sS'toggle'
p12
S'Calc'
p13
sS'setRevenue'
p14
F2000
sS'calcRevenue'
p15
F1900
sbsS'percentages'
p16
g1
(c__main__
GetAllPercentages
p17
g3
NtRp18
(dp19
g16
(dp20
S'Transportation'
p21
F0.13157894736842105
sS'Entertainment'
p22
F0.063157894736842107
sS'Food'
p23
F0.13157894736842105
sS'Medical'
p24
F0
sS'Work'
p25
F0.19473684210526315
sS'Utilities'
p26
F0.21052631578947367
sS'Other'
p27
F0
sS'Vacation 12/04/2013'
p28
F0.16194331983805668
sS'Charity'
p29
F0.052631578947368418
ssbsS'rev_and_exp'
p30
g1
(c__main__
RevenuesAndExpedenturesList
p31
g3
NtRp32
(dp33
S'theList'
p34
(lp35
g1
(c__main__
RevenuesAndExpedentures
p36
g3
NtRp37
(dp38
S'category'
p39
S'Other'
p40
sS'description'
p41
VGift
p42
sS'dateDay'
p43
I6
sS'dateYear'
p44
I2012
sS'currency'
p45
S'Giftcard'
p46
sS'amount'
p47
F360
sS'dateNumeric'
p48
I20121206
sS'dateMonth'
p49
I12
sS'date'
p50
V12/06/2012
p51
sS'type'
p52
S'Revenue'
p53
sbag1
(g36
g3
NtRp54
(dp55
g39
S'Food'
p56
sg41
VRestaurant
p57
sg43
I6
sg44
I2012
sg45
S'Cash'
p58
sg47
F56
sg48
I20121206
sg49
I12
sg50
V12/06/2012
p59
sg52
S'Expense'
p60
sbag1
(g36
g3
NtRp61
(dp62
g39
S'Entertainment'
p63
sg41
Vmovies
p64
sg43
I5
sg44
I2012
sg45
S'Credit'
p65
sg47
F25
sg48
I20121205
sg49
I12
sg50
V12/05/2012
p66
sg52
g60
sbag1
(g36
g3
NtRp67
(dp68
g39
S'Charity'
p69
sg41
VUnicef Donation
p70
sg43
I5
sg44
I2012
sg45
g65
sg47
F35
sg48
I20121205
sg49
I12
sg50
V12/05/2012
p71
sg52
g60
sbag1
(g36
g3
NtRp72
(dp73
g39
S'Work'
p74
sg41
VPaycheck
p75
sg43
I4
sg44
I2012
sg45
g65
sg47
F420
sg48
I20121204
sg49
I12
sg50
V12/04/2012
p76
sg52
g53
sbag1
(g36
g3
NtRp77
(dp78
g39
S'Transportation'
p79
sg41
VTaxi
p80
sg43
I3
sg44
I2012
sg45
g58
sg47
F20
sg48
I20121203
sg49
I12
sg50
V12/03/2012
p81
sg52
g60
sbag1
(g36
g3
NtRp82
(dp83
g39
g74
sg41
VPaycheck
p84
sg43
I3
sg44
I2012
sg45
g58
sg47
F400
sg48
I20121203
sg49
I12
sg50
V12/03/2012
p85
sg52
g53
sbag1
(g36
g3
NtRp86
(dp87
g39
g40
sg41
Vreimbursement
p88
sg43
I1
sg44
I2012
sg45
S'Bank Account'
p89
sg47
F200
sg48
I20121201
sg49
I12
sg50
V12/01/2012
p90
sg52
g53
sbag1
(g36
g3
NtRp91
(dp92
g39
g56
sg41
VKey Lime Pie
p93
sg43
I1
sg44
I2012
sg45
g65
sg47
F15
sg48
I20121201
sg49
I12
sg50
V12/01/2012
p94
sg52
g60
sbag1
(g36
g3
NtRp95
(dp96
g39
g74
sg41
VPaycheck
p97
sg43
I30
sg44
I2012
sg45
Nsg47
F700
sg48
I20121130
sg49
I11
sg50
V11/30/2012
p98
sg52
g53
sbag1
(g36
g3
NtRp99
(dp100
g39
g63
sg41
VVacation
p101
sg43
I23
sg44
I2012
sg45
g65
sg47
F600
sg48
I20121123
sg49
I11
sg50
V11/23/2012
p102
sg52
g60
sbag1
(g36
g3
NtRp103
(dp104
g39
g74
sg41
VPaycheck
p105
sg43
I3
sg44
I2012
sg45
g89
sg47
F1200
sg48
I20121103
sg49
I11
sg50
V11/03/2012
p106
sg52
g53
sbag1
(g36
g3
NtRp107
(dp108
g39
g74
sg41
VPaycheck
p109
sg43
I14
sg44
I2012
sg45
g89
sg47
F900
sg48
I20121014
sg49
I10
sg50
V10/14/2012
p110
sg52
g53
sbag1
(g36
g3
NtRp111
(dp112
g39
g69
sg41
VDog Shelter
p113
sg43
I12
sg44
I2012
sg45
g89
sg47
F300
sg48
I20120912
sg49
I9
sg50
V09/12/2012
p114
sg52
g60
sbag1
(g36
g3
NtRp115
(dp116
g39
g40
sg41
VSettlement
p117
sg43
I12
sg44
I2012
sg45
g65
sg47
F2300
sg48
I20120612
sg49
I6
sg50
V06/12/2012
p118
sg52
g53
sbag1
(g36
g3
NtRp119
(dp120
g39
S'Medical'
p121
sg41
VSickness
p122
sg43
I12
sg44
I2012
sg45
g65
sg47
F200
sg48
I20120612
sg49
I6
sg50
V06/12/2012
p123
sg52
g60
sbag1
(g36
g3
NtRp124
(dp125
g39
g40
sg41
VVegas
p126
sg43
I23
sg44
I2012
sg45
g89
sg47
F2500
sg48
I2012823
sg49
I8
sg50
V8/23/2012
p127
sg52
g53
sbasbsS'graphInfo'
p128
g1
(c__main__
MyGraphInfo
p129
g3
NtRp130
(dp131
S'windowSize'
p132
(lp133
I420
aI600
asbsS'savedBudget'
p134
g1
(c__main__
SavedBudgetInfo
p135
g3
NtRp136
(dp137
S'transportation'
p138
V250.00
p139
sS'entertainment'
p140
V120.00
p141
sS'food'
p142
V250.00
p143
sS'entertainmnet'
p144
I0
sS'medical'
p145
V
sS'work'
p146
V370.00
p147
sS'utilities'
p148
V400.00
p149
sS'other'
p150
S''
sS'charity'
p151
V100.00
p152
sbsS'savedGoals'
p153
g1
(c__main__
SavedGoalsInfo
p154
g3
NtRp155
(dp156
S'goalNames'
p157
(lp158
VVacation
p159
aS'Name'
p160
ag160
ag160
ag160
asS'goalDates'
p161
(lp162
V12/04/2013
p163
aS'Date (MM/DD/YYYY)'
p164
ag164
ag164
ag164
asS'goalAmounts'
p165
(lp166
V4000.00
p167
aS'Amount (0.00)'
p168
ag168
ag168
ag168
asbsb.